target datalayout = "e-m:e-p270:32:32-p271:32:32-p272:64:64-i64:64-i128:128-f80:128-n8:16:32:64-S128"
target triple = "x86_64-pc-linux-gnu"

@.str.9 = private unnamed_addr constant [3 x i8] c"0x\00", align 1

; Function Attrs: nounwind uwtable
define dso_local void @bit_clear(ptr noundef %0, i64 noundef %1) #0 {
  %3 = alloca ptr, align 8
  %4 = alloca i64, align 8
  store ptr %0, ptr %3, align 8
  store i64 %1, ptr %4, align 8
  br label %5

5:                                                ; preds = %2
  br label %6

6:                                                ; preds = %5
  br label %7

7:                                                ; preds = %6
  br label %8

8:                                                ; preds = %7
  %9 = load i64, ptr %4, align 8
  %10 = and i64 %9, 63
  %11 = shl i64 1, %10
  %12 = xor i64 %11, -1
  %13 = load ptr, ptr %3, align 8
  %14 = load i64, ptr %4, align 8
  %15 = ashr i64 %14, 6
  %16 = add nsw i64 %15, 2
  %17 = getelementptr inbounds i64, ptr %13, i64 %16
  %18 = load i64, ptr %17, align 8
  %19 = and i64 %18, %12
  store i64 %19, ptr %17, align 8
  ret void
}

; Function Attrs: nounwind uwtable
define dso_local void @bit_set(ptr noundef %0, i64 noundef %1) #0 {
  %3 = alloca ptr, align 8
  %4 = alloca i64, align 8
  store ptr %0, ptr %3, align 8
  store i64 %1, ptr %4, align 8
  br label %5

5:                                                ; preds = %2
  br label %6

6:                                                ; preds = %5
  br label %7

7:                                                ; preds = %6
  br label %8

8:                                                ; preds = %7
  %9 = load i64, ptr %4, align 8
  %10 = and i64 %9, 63
  %11 = shl i64 1, %10
  %12 = load ptr, ptr %3, align 8
  %13 = load i64, ptr %4, align 8
  %14 = ashr i64 %13, 6
  %15 = add nsw i64 %14, 2
  %16 = getelementptr inbounds i64, ptr %12, i64 %15
  %17 = load i64, ptr %16, align 8
  %18 = or i64 %17, %11
  store i64 %18, ptr %16, align 8
  ret void
}

; Function Attrs: inlinehint nounwind willreturn memory(read) uwtable
define available_externally i32 @toupper(i32 noundef %0) #11 {
  %2 = alloca i32, align 4
  store i32 %0, ptr %2, align 4
  %3 = load i32, ptr %2, align 4
  %4 = icmp sge i32 %3, -128
  br i1 %4, label %5, label %15

5:                                                ; preds = %1
  %6 = load i32, ptr %2, align 4
  %7 = icmp slt i32 %6, 256
  br i1 %7, label %8, label %15

8:                                                ; preds = %5
  %9 = call ptr @__ctype_toupper_loc() #14
  %10 = load ptr, ptr %9, align 8
  %11 = load i32, ptr %2, align 4
  %12 = sext i32 %11 to i64
  %13 = getelementptr inbounds i32, ptr %10, i64 %12
  %14 = load i32, ptr %13, align 4
  br label %17

15:                                               ; preds = %5, %1
  %16 = load i32, ptr %2, align 4
  br label %17

17:                                               ; preds = %15, %8
  %18 = phi i32 [ %14, %8 ], [ %16, %15 ]
  ret i32 %18
}

; Function Attrs: nounwind uwtable
define dso_local void @bit_nclear(ptr noundef %0, i64 noundef %1, i64 noundef %2) #0 {
  %4 = alloca ptr, align 8
  %5 = alloca i64, align 8
  %6 = alloca i64, align 8
  store ptr %0, ptr %4, align 8
  store i64 %1, ptr %5, align 8
  store i64 %2, ptr %6, align 8
  br label %7

7:                                                ; preds = %3
  br label %8

8:                                                ; preds = %7
  br label %9

9:                                                ; preds = %8
  br label %10

10:                                               ; preds = %9
  br label %11

11:                                               ; preds = %10
  br label %12

12:                                               ; preds = %11
  br label %13

13:                                               ; preds = %23, %12
  %14 = load i64, ptr %5, align 8
  %15 = load i64, ptr %6, align 8
  %16 = icmp sle i64 %14, %15
  br i1 %16, label %17, label %21

17:                                               ; preds = %13
  %18 = load i64, ptr %5, align 8
  %19 = srem i64 %18, 8
  %20 = icmp sgt i64 %19, 0
  br label %21

21:                                               ; preds = %17, %13
  %22 = phi i1 [ false, %13 ], [ %20, %17 ]
  br i1 %22, label %23, label %27

23:                                               ; preds = %21
  %24 = load ptr, ptr %4, align 8
  %25 = load i64, ptr %5, align 8
  %26 = add nsw i64 %25, 1
  store i64 %26, ptr %5, align 8
  call void @bit_clear(ptr noundef %24, i64 noundef %25)
  br label %13, !llvm.loop !8

27:                                               ; preds = %21
  br label %28

28:                                               ; preds = %39, %27
  %29 = load i64, ptr %6, align 8
  %30 = load i64, ptr %5, align 8
  %31 = icmp sge i64 %29, %30
  br i1 %31, label %32, label %37

32:                                               ; preds = %28
  %33 = load i64, ptr %6, align 8
  %34 = add nsw i64 %33, 1
  %35 = srem i64 %34, 8
  %36 = icmp sgt i64 %35, 0
  br label %37

37:                                               ; preds = %32, %28
  %38 = phi i1 [ false, %28 ], [ %36, %32 ]
  br i1 %38, label %39, label %43

39:                                               ; preds = %37
  %40 = load ptr, ptr %4, align 8
  %41 = load i64, ptr %6, align 8
  %42 = add nsw i64 %41, -1
  store i64 %42, ptr %6, align 8
  call void @bit_clear(ptr noundef %40, i64 noundef %41)
  br label %28, !llvm.loop !11

43:                                               ; preds = %37
  %44 = load i64, ptr %6, align 8
  %45 = load i64, ptr %5, align 8
  %46 = icmp sgt i64 %44, %45
  br i1 %46, label %47, label %58

47:                                               ; preds = %43
  %48 = load ptr, ptr %4, align 8
  %49 = getelementptr inbounds i64, ptr %48, i64 2
  %50 = load i64, ptr %5, align 8
  %51 = ashr i64 %50, 3
  %52 = getelementptr inbounds i8, ptr %49, i64 %51
  %53 = load i64, ptr %6, align 8
  %54 = load i64, ptr %5, align 8
  %55 = sub nsw i64 %53, %54
  %56 = add nsw i64 %55, 1
  %57 = sdiv i64 %56, 8
  call void @llvm.memset.p0.i64(ptr align 1 %52, i8 0, i64 %57, i1 false)
  br label %58

58:                                               ; preds = %47, %43
  ret void
}

; Function Attrs: nounwind uwtable
define dso_local i64 @bit_size(ptr noundef %0) #0 {
  %2 = alloca ptr, align 8
  store ptr %0, ptr %2, align 8
  br label %3

3:                                                ; preds = %1
  br label %4

4:                                                ; preds = %3
  %5 = load ptr, ptr %2, align 8
  %6 = getelementptr inbounds i64, ptr %5, i64 1
  %7 = load i64, ptr %6, align 8
  ret i64 %7
}

; Function Attrs: nounwind uwtable
define dso_local i32 @bit_unfmt_hexmask(ptr noundef %0, ptr noundef %1) #0 {
  %3 = alloca i32, align 4
  %4 = alloca ptr, align 8
  %5 = alloca ptr, align 8
  %6 = alloca i32, align 4
  %7 = alloca i32, align 4
  %8 = alloca i32, align 4
  %9 = alloca ptr, align 8
  %10 = alloca i64, align 8
  %11 = alloca i64, align 8
  %12 = alloca i32, align 4
  %13 = alloca i32, align 4
  %14 = alloca i32, align 4
  %15 = alloca i32, align 4
  store ptr %0, ptr %4, align 8
  store ptr %1, ptr %5, align 8
  call void @llvm.lifetime.start.p0(i64 4, ptr %6) #12
  store i32 0, ptr %6, align 4
  call void @llvm.lifetime.start.p0(i64 4, ptr %7) #12
  call void @llvm.lifetime.start.p0(i64 4, ptr %8) #12
  store i32 0, ptr %8, align 4
  call void @llvm.lifetime.start.p0(i64 8, ptr %9) #12
  call void @llvm.lifetime.start.p0(i64 8, ptr %10) #12
  call void @llvm.lifetime.start.p0(i64 8, ptr %11) #12
  %16 = load ptr, ptr %4, align 8
  %17 = icmp ne ptr %16, null
  br i1 %17, label %18, label %21

18:                                               ; preds = %2
  %19 = load ptr, ptr %5, align 8
  %20 = icmp ne ptr %19, null
  br i1 %20, label %22, label %21

21:                                               ; preds = %18, %2
  store i32 -1, ptr %3, align 4
  store i32 1, ptr %12, align 4
  br label %211

22:                                               ; preds = %18
  %23 = load ptr, ptr %5, align 8
  %24 = call i64 @strlen(ptr noundef %23) #13
  %25 = trunc i64 %24 to i32
  store i32 %25, ptr %7, align 4
  %26 = load ptr, ptr %4, align 8
  %27 = call i64 @bit_size(ptr noundef %26)
  store i64 %27, ptr %11, align 8
  %28 = load ptr, ptr %5, align 8
  %29 = load i32, ptr %7, align 4
  %30 = sext i32 %29 to i64
  %31 = getelementptr inbounds i8, ptr %28, i64 %30
  %32 = getelementptr inbounds i8, ptr %31, i64 -1
  store ptr %32, ptr %9, align 8
  %33 = load ptr, ptr %4, align 8
  %34 = load i64, ptr %11, align 8
  %35 = sub nsw i64 %34, 1
  call void @bit_nclear(ptr noundef %33, i64 noundef 0, i64 noundef %35)
  %36 = load ptr, ptr %5, align 8
  %37 = call i32 @xstrncmp(ptr noundef %36, ptr noundef @.str.9, i64 noundef 2)
  %38 = icmp eq i32 %37, 0
  br i1 %38, label %39, label %42

39:                                               ; preds = %22
  %40 = load ptr, ptr %5, align 8
  %41 = getelementptr inbounds i8, ptr %40, i64 2
  store ptr %41, ptr %5, align 8
  br label %42

42:                                               ; preds = %39, %22
  br label %43

43:                                               ; preds = %204, %119, %42
  %44 = load ptr, ptr %9, align 8
  %45 = load ptr, ptr %5, align 8
  %46 = icmp uge ptr %44, %45
  br i1 %46, label %47, label %209

47:                                               ; preds = %43
  %48 = load ptr, ptr %9, align 8
  %49 = load i8, ptr %48, align 1
  %50 = sext i8 %49 to i64
  store i64 %50, ptr %10, align 8
  %51 = call ptr @__ctype_b_loc() #14
  %52 = load ptr, ptr %51, align 8
  %53 = load i64, ptr %10, align 8
  %54 = trunc i64 %53 to i32
  %55 = sext i32 %54 to i64
  %56 = getelementptr inbounds i16, ptr %52, i64 %55
  %57 = load i16, ptr %56, align 2
  %58 = zext i16 %57 to i32
  %59 = and i32 %58, 4096
  %60 = icmp ne i32 %59, 0
  br i1 %60, label %61, label %108

61:                                               ; preds = %47
  %62 = call ptr @__ctype_b_loc() #14
  %63 = load ptr, ptr %62, align 8
  %64 = load i64, ptr %10, align 8
  %65 = trunc i64 %64 to i32
  %66 = sext i32 %65 to i64
  %67 = getelementptr inbounds i16, ptr %63, i64 %66
  %68 = load i16, ptr %67, align 2
  %69 = zext i16 %68 to i32
  %70 = and i32 %69, 2048
  %71 = icmp ne i32 %70, 0
  br i1 %71, label %72, label %75

72:                                               ; preds = %61
  %73 = load i64, ptr %10, align 8
  %74 = sub nsw i64 %73, 48
  store i64 %74, ptr %10, align 8
  br label %107

75:                                               ; preds = %61
  call void @llvm.lifetime.start.p0(i64 4, ptr %13) #12
  %76 = load i64, ptr %10, align 8
  %77 = call i1 @llvm.is.constant.i64(i64 %76)
  br i1 %77, label %78, label %97

78:                                               ; preds = %75
  call void @llvm.lifetime.start.p0(i64 4, ptr %14) #12
  %79 = load i64, ptr %10, align 8
  %80 = trunc i64 %79 to i32
  store i32 %80, ptr %14, align 4
  %81 = load i32, ptr %14, align 4
  %82 = icmp slt i32 %81, -128
  br i1 %82, label %86, label %83

83:                                               ; preds = %78
  %84 = load i32, ptr %14, align 4
  %85 = icmp sgt i32 %84, 255
  br i1 %85, label %86, label %88

86:                                               ; preds = %83, %78
  %87 = load i32, ptr %14, align 4
  br label %95

88:                                               ; preds = %83
  %89 = call ptr @__ctype_toupper_loc() #14
  %90 = load ptr, ptr %89, align 8
  %91 = load i32, ptr %14, align 4
  %92 = sext i32 %91 to i64
  %93 = getelementptr inbounds i32, ptr %90, i64 %92
  %94 = load i32, ptr %93, align 4
  br label %95

95:                                               ; preds = %88, %86
  %96 = phi i32 [ %87, %86 ], [ %94, %88 ]
  store i32 %96, ptr %13, align 4
  call void @llvm.lifetime.end.p0(i64 4, ptr %14) #12
  br label %101

97:                                               ; preds = %75
  %98 = load i64, ptr %10, align 8
  %99 = trunc i64 %98 to i32
  %100 = call i32 @toupper(i32 noundef %99) #13
  store i32 %100, ptr %13, align 4
  br label %101

101:                                              ; preds = %97, %95
  %102 = load i32, ptr %13, align 4
  store i32 %102, ptr %15, align 4
  call void @llvm.lifetime.end.p0(i64 4, ptr %13) #12
  %103 = load i32, ptr %15, align 4
  %104 = sext i32 %103 to i64
  store i64 %104, ptr %10, align 8
  %105 = load i64, ptr %10, align 8
  %106 = sub nsw i64 %105, 55
  store i64 %106, ptr %10, align 8
  br label %107

107:                                              ; preds = %101, %72
  br label %109

108:                                              ; preds = %47
  store i64 0, ptr %10, align 8
  store i32 -1, ptr %8, align 4
  br label %209

109:                                              ; preds = %107
  %110 = load i32, ptr %6, align 4
  %111 = add nsw i32 %110, 3
  %112 = sext i32 %111 to i64
  %113 = load i64, ptr %11, align 8
  %114 = icmp slt i64 %112, %113
  br i1 %114, label %115, label %138

115:                                              ; preds = %109
  %116 = load i32, ptr %6, align 4
  %117 = srem i32 %116, 4
  %118 = icmp ne i32 %117, 0
  br i1 %118, label %138, label %119

119:                                              ; preds = %115
  %120 = load i64, ptr %10, align 8
  %121 = and i64 %120, 15
  %122 = load i32, ptr %6, align 4
  %123 = sext i32 %122 to i64
  %124 = and i64 %123, 63
  %125 = shl i64 %121, %124
  %126 = load ptr, ptr %4, align 8
  %127 = load i32, ptr %6, align 4
  %128 = ashr i32 %127, 6
  %129 = add nsw i32 %128, 2
  %130 = sext i32 %129 to i64
  %131 = getelementptr inbounds i64, ptr %126, i64 %130
  %132 = load i64, ptr %131, align 8
  %133 = or i64 %132, %125
  store i64 %133, ptr %131, align 8
  %134 = load ptr, ptr %9, align 8
  %135 = getelementptr inbounds i8, ptr %134, i32 -1
  store ptr %135, ptr %9, align 8
  %136 = load i32, ptr %6, align 4
  %137 = add nsw i32 %136, 4
  store i32 %137, ptr %6, align 4
  br label %43, !llvm.loop !30

138:                                              ; preds = %115, %109
  %139 = load i64, ptr %10, align 8
  %140 = and i64 %139, 1
  %141 = icmp ne i64 %140, 0
  br i1 %141, label %142, label %153

142:                                              ; preds = %138
  %143 = load i32, ptr %6, align 4
  %144 = sext i32 %143 to i64
  %145 = load i64, ptr %11, align 8
  %146 = icmp slt i64 %144, %145
  br i1 %146, label %147, label %151

147:                                              ; preds = %142
  %148 = load ptr, ptr %4, align 8
  %149 = load i32, ptr %6, align 4
  %150 = sext i32 %149 to i64
  call void @bit_set(ptr noundef %148, i64 noundef %150)
  br label %152

151:                                              ; preds = %142
  store i32 -1, ptr %8, align 4
  br label %209

152:                                              ; preds = %147
  br label %153

153:                                              ; preds = %152, %138
  %154 = load i64, ptr %10, align 8
  %155 = and i64 %154, 2
  %156 = icmp ne i64 %155, 0
  br i1 %156, label %157, label %170

157:                                              ; preds = %153
  %158 = load i32, ptr %6, align 4
  %159 = add nsw i32 %158, 1
  %160 = sext i32 %159 to i64
  %161 = load i64, ptr %11, align 8
  %162 = icmp slt i64 %160, %161
  br i1 %162, label %163, label %168

163:                                              ; preds = %157
  %164 = load ptr, ptr %4, align 8
  %165 = load i32, ptr %6, align 4
  %166 = add nsw i32 %165, 1
  %167 = sext i32 %166 to i64
  call void @bit_set(ptr noundef %164, i64 noundef %167)
  br label %169

168:                                              ; preds = %157
  store i32 -1, ptr %8, align 4
  br label %209

169:                                              ; preds = %163
  br label %170

170:                                              ; preds = %169, %153
  %171 = load i64, ptr %10, align 8
  %172 = and i64 %171, 4
  %173 = icmp ne i64 %172, 0
  br i1 %173, label %174, label %187

174:                                              ; preds = %170
  %175 = load i32, ptr %6, align 4
  %176 = add nsw i32 %175, 2
  %177 = sext i32 %176 to i64
  %178 = load i64, ptr %11, align 8
  %179 = icmp slt i64 %177, %178
  br i1 %179, label %180, label %185

180:                                              ; preds = %174
  %181 = load ptr, ptr %4, align 8
  %182 = load i32, ptr %6, align 4
  %183 = add nsw i32 %182, 2
  %184 = sext i32 %183 to i64
  call void @bit_set(ptr noundef %181, i64 noundef %184)
  br label %186

185:                                              ; preds = %174
  store i32 -1, ptr %8, align 4
  br label %209

186:                                              ; preds = %180
  br label %187

187:                                              ; preds = %186, %170
  %188 = load i64, ptr %10, align 8
  %189 = and i64 %188, 8
  %190 = icmp ne i64 %189, 0
  br i1 %190, label %191, label %204

191:                                              ; preds = %187
  %192 = load i32, ptr %6, align 4
  %193 = add nsw i32 %192, 3
  %194 = sext i32 %193 to i64
  %195 = load i64, ptr %11, align 8
  %196 = icmp slt i64 %194, %195
  br i1 %196, label %197, label %202

197:                                              ; preds = %191
  %198 = load ptr, ptr %4, align 8
  %199 = load i32, ptr %6, align 4
  %200 = add nsw i32 %199, 3
  %201 = sext i32 %200 to i64
  call void @bit_set(ptr noundef %198, i64 noundef %201)
  br label %203

202:                                              ; preds = %191
  store i32 -1, ptr %8, align 4
  br label %209

203:                                              ; preds = %197
  br label %204

204:                                              ; preds = %203, %187
  %205 = load ptr, ptr %9, align 8
  %206 = getelementptr inbounds i8, ptr %205, i32 -1
  store ptr %206, ptr %9, align 8
  %207 = load i32, ptr %6, align 4
  %208 = add nsw i32 %207, 4
  store i32 %208, ptr %6, align 4
  br label %43, !llvm.loop !30

209:                                              ; preds = %202, %185, %168, %151, %108, %43
  %210 = load i32, ptr %8, align 4
  store i32 %210, ptr %3, align 4
  store i32 1, ptr %12, align 4
  br label %211

211:                                              ; preds = %209, %21
  call void @llvm.lifetime.end.p0(i64 8, ptr %11) #12
  call void @llvm.lifetime.end.p0(i64 8, ptr %10) #12
  call void @llvm.lifetime.end.p0(i64 8, ptr %9) #12
  call void @llvm.lifetime.end.p0(i64 4, ptr %8) #12
  call void @llvm.lifetime.end.p0(i64 4, ptr %7) #12
  call void @llvm.lifetime.end.p0(i64 4, ptr %6) #12
  %212 = load i32, ptr %3, align 4
  ret i32 %212
}