; Function Attrs: nounwind uwtable
define dso_local range(i32 -1, 1) i32 @bit_unfmt_hexmask(ptr noundef captures(address_is_null) %0, ptr noundef %1) #0 {
  %3 = icmp ne ptr %0, null
  %4 = icmp ne ptr %1, null
  %or.cond = and i1 %3, %4
  br i1 %or.cond, label %5, label %.loopexit

5:                                                ; preds = %2
  %6 = tail call i64 @strlen(ptr noundef nonnull dereferenceable(1) %1) #20
  %7 = getelementptr inbounds nuw i8, ptr %0, i64 8
  %8 = load i64, ptr %7, align 8
  %sext = shl i64 %6, 32
  %9 = ashr exact i64 %sext, 32
  %10 = getelementptr inbounds i8, ptr %1, i64 %9
  %11 = getelementptr inbounds i8, ptr %10, i64 -1
  %invariant.gep.i = getelementptr i8, ptr %0, i64 16
  %.not1825.i = icmp slt i64 %8, 1
  br i1 %.not1825.i, label %bit_nclear.exit, label %.lr.ph27.i

.lr.ph27.i:                                       ; preds = %5, %.critedge.i
  %.026.i.in = phi i64 [ %.026.i, %.critedge.i ], [ %8, %5 ]
  %12 = and i64 %.026.i.in, 7
  %.not82 = icmp eq i64 %12, 0
  br i1 %.not82, label %.critedge2.i, label %.critedge.i

.critedge.i:                                      ; preds = %.lr.ph27.i
  %.026.i = add nsw i64 %.026.i.in, -1
  %13 = and i64 %.026.i, 63
  %14 = shl nuw i64 1, %13
  %15 = xor i64 %14, -1
  %16 = ashr i64 %.026.i, 6
  %gep24.i = getelementptr i64, ptr %invariant.gep.i, i64 %16
  %17 = load i64, ptr %gep24.i, align 8
  %18 = and i64 %17, %15
  store i64 %18, ptr %gep24.i, align 8
  %.not18.not.i = icmp sgt i64 %.026.i.in, 1
  br i1 %.not18.not.i, label %.lr.ph27.i, label %bit_nclear.exit, !llvm.loop !11

.critedge2.i:                                     ; preds = %.lr.ph27.i
  %19 = lshr exact i64 %.026.i.in, 3
  tail call void @llvm.memset.p0.i64(ptr noundef nonnull align 1 dereferenceable(1) %invariant.gep.i, i8 0, i64 %19, i1 false)
  br label %bit_nclear.exit

bit_nclear.exit:                                  ; preds = %.critedge.i, %5, %.critedge2.i
  %20 = tail call i32 @xstrncmp(ptr noundef nonnull %1, ptr noundef nonnull @.str.9, i64 noundef 2) #17
  %21 = icmp eq i32 %20, 0
  %spec.select.idx = select i1 %21, i64 2, i64 0
  %spec.select = getelementptr inbounds nuw i8, ptr %1, i64 %spec.select.idx
  %.not92 = icmp ult ptr %11, %spec.select
  br i1 %.not92, label %.loopexit, label %.lr.ph

.lr.ph:                                           ; preds = %bit_nclear.exit
  %22 = tail call ptr @__ctype_b_loc() #18
  br label %23

23:                                               ; preds = %.lr.ph, %.backedge
  %indvars.iv = phi i64 [ 0, %.lr.ph ], [ %indvars.iv.next, %.backedge ]
  %.06593 = phi ptr [ %11, %.lr.ph ], [ %.065.be, %.backedge ]
  %24 = load i8, ptr %.06593, align 1
  %25 = sext i8 %24 to i64
  %26 = load ptr, ptr %22, align 8
  %27 = getelementptr inbounds i16, ptr %26, i64 %25
  %28 = load i16, ptr %27, align 2
  %29 = zext i16 %28 to i32
  %30 = and i32 %29, 4096
  %.not73 = icmp eq i32 %30, 0
  br i1 %.not73, label %.loopexit, label %31

31:                                               ; preds = %23
  %32 = and i32 %29, 2048
  %.not74 = icmp eq i32 %32, 0
  br i1 %.not74, label %35, label %33

33:                                               ; preds = %31
  %34 = add nsw i64 %25, -48
  br label %39

35:                                               ; preds = %31
  %36 = tail call ptr @__ctype_toupper_loc() #18
  %.pn = load ptr, ptr %36, align 8
  %.062.in = getelementptr inbounds i32, ptr %.pn, i64 %25
  %.062 = load i32, ptr %.062.in, align 4
  %37 = zext i32 %.062 to i64
  %38 = add nsw i64 %37, -55
  br label %39

39:                                               ; preds = %33, %35
  %.064 = phi i64 [ %34, %33 ], [ %38, %35 ]
  %40 = or disjoint i64 %indvars.iv, 3
  %41 = icmp sgt i64 %8, %40
  br i1 %41, label %42, label %50

42:                                               ; preds = %39
  %43 = and i64 %.064, 15
  %44 = and i64 %indvars.iv, 60
  %45 = shl nuw i64 %43, %44
  %46 = lshr i64 %indvars.iv, 6
  %47 = and i64 %46, 67108863
  %gep91 = getelementptr i64, ptr %invariant.gep.i, i64 %47
  %48 = load i64, ptr %gep91, align 8
  %49 = or i64 %48, %45
  store i64 %49, ptr %gep91, align 8
  br label %.backedge

.backedge:                                        ; preds = %82, %42
  %indvars.iv.next = add nuw nsw i64 %indvars.iv, 4
  %.065.be = getelementptr inbounds i8, ptr %.06593, i64 -1
  %.not = icmp ult ptr %.065.be, %spec.select
  br i1 %.not, label %.loopexit, label %23, !llvm.loop !31

50:                                               ; preds = %39
  %51 = and i64 %.064, 1
  %.not76 = icmp eq i64 %51, 0
  br i1 %.not76, label %60, label %52

52:                                               ; preds = %50
  %53 = icmp sgt i64 %8, %indvars.iv
  br i1 %53, label %54, label %.loopexit

54:                                               ; preds = %52
  %55 = and i64 %indvars.iv, 60
  %56 = shl nuw nsw i64 1, %55
  %57 = lshr i64 %indvars.iv, 6
  %gep = getelementptr i64, ptr %invariant.gep.i, i64 %57
  %58 = load i64, ptr %gep, align 8
  %59 = or i64 %58, %56
  store i64 %59, ptr %gep, align 8
  br label %60

60:                                               ; preds = %54, %50
  %61 = and i64 %.064, 2
  %.not77 = icmp eq i64 %61, 0
  br i1 %.not77, label %71, label %62

62:                                               ; preds = %60
  %63 = or disjoint i64 %indvars.iv, 1
  %64 = icmp sgt i64 %8, %63
  br i1 %64, label %65, label %.loopexit

65:                                               ; preds = %62
  %66 = and i64 %63, 61
  %67 = shl nuw nsw i64 1, %66
  %68 = lshr i64 %indvars.iv, 6
  %gep85 = getelementptr i64, ptr %invariant.gep.i, i64 %68
  %69 = load i64, ptr %gep85, align 8
  %70 = or i64 %69, %67
  store i64 %70, ptr %gep85, align 8
  br label %71

71:                                               ; preds = %65, %60
  %72 = and i64 %.064, 4
  %.not78 = icmp eq i64 %72, 0
  br i1 %.not78, label %82, label %73

73:                                               ; preds = %71
  %74 = or disjoint i64 %indvars.iv, 2
  %75 = icmp sgt i64 %8, %74
  br i1 %75, label %76, label %.loopexit

76:                                               ; preds = %73
  %77 = and i64 %74, 62
  %78 = shl nuw nsw i64 1, %77
  %79 = lshr i64 %indvars.iv, 6
  %gep87 = getelementptr i64, ptr %invariant.gep.i, i64 %79
  %80 = load i64, ptr %gep87, align 8
  %81 = or i64 %80, %78
  store i64 %81, ptr %gep87, align 8
  br label %82

82:                                               ; preds = %76, %71
  %83 = and i64 %.064, 8
  %.not79 = icmp eq i64 %83, 0
  br i1 %.not79, label %.backedge, label %.loopexit

.loopexit:                                        ; preds = %73, %62, %52, %23, %.backedge, %82, %bit_nclear.exit, %2
  %.0 = phi i32 [ -1, %2 ], [ 0, %bit_nclear.exit ], [ -1, %82 ], [ -1, %73 ], [ -1, %62 ], [ -1, %52 ], [ -1, %23 ], [ 0, %.backedge ]
  ret i32 %.0
}